target datalayout = "e-m:e-p270:32:32-p271:32:32-p272:64:64-i64:64-i128:128-f80:128-n8:16:32:64-S128"
target triple = "x86_64-pc-linux-gnu"

; Function Attrs: nounwind uwtable
define dso_local i32 @do_X509_CRL_sign(ptr noundef %0, ptr noundef %1, ptr noundef %2, ptr noundef %3) #0 {
  %5 = alloca ptr, align 8
  %6 = alloca ptr, align 8
  %7 = alloca ptr, align 8
  %8 = alloca ptr, align 8
  %9 = alloca i32, align 4
  %10 = alloca ptr, align 8
  store ptr %0, ptr %5, align 8, !tbaa !71
  store ptr %1, ptr %6, align 8, !tbaa !67
  store ptr %2, ptr %7, align 8, !tbaa !9
  store ptr %3, ptr %8, align 8, !tbaa !84
  call void @llvm.lifetime.start.p0(i64 4, ptr %9) #12
  store i32 0, ptr %9, align 4, !tbaa !25
  call void @llvm.lifetime.start.p0(i64 8, ptr %10) #12
  %11 = call ptr @EVP_MD_CTX_new()
  store ptr %11, ptr %10, align 8, !tbaa !157
  %12 = load ptr, ptr %10, align 8, !tbaa !157
  %13 = load ptr, ptr %6, align 8, !tbaa !67
  %14 = load ptr, ptr %7, align 8, !tbaa !9
  %15 = load ptr, ptr %8, align 8, !tbaa !84
  %16 = call i32 @do_sign_init(ptr noundef %12, ptr noundef %13, ptr noundef %14, ptr noundef %15)
  %17 = icmp sgt i32 %16, 0
  br i1 %17, label %18, label %24

18:                                               ; preds = %4
  %19 = load ptr, ptr %5, align 8, !tbaa !71
  %20 = load ptr, ptr %10, align 8, !tbaa !157
  %21 = call i32 @X509_CRL_sign_ctx(ptr noundef %19, ptr noundef %20)
  %22 = icmp sgt i32 %21, 0
  %23 = zext i1 %22 to i32
  store i32 %23, ptr %9, align 4, !tbaa !25
  br label %24

24:                                               ; preds = %18, %4
  %25 = load ptr, ptr %10, align 8, !tbaa !157
  call void @EVP_MD_CTX_free(ptr noundef %25)
  %26 = load i32, ptr %9, align 4, !tbaa !25
  call void @llvm.lifetime.end.p0(i64 8, ptr %10) #12
  call void @llvm.lifetime.end.p0(i64 4, ptr %9) #12
  ret i32 %26
}