; Function Attrs: nounwind uwtable
define dso_local range(i32 0, 2) i32 @do_X509_CRL_sign(ptr noundef %0, ptr noundef %1, ptr noundef %2, ptr noundef %3) local_unnamed_addr #0 {
  %5 = tail call ptr @EVP_MD_CTX_new() #27
  %6 = tail call fastcc i32 @do_sign_init(ptr noundef %5, ptr noundef %1, ptr noundef %2, ptr noundef %3)
  %.not = icmp eq i32 %6, 0
  br i1 %.not, label %11, label %7

7:                                                ; preds = %4
  %8 = tail call i32 @X509_CRL_sign_ctx(ptr noundef %0, ptr noundef %5) #27
  %9 = icmp sgt i32 %8, 0
  %10 = zext i1 %9 to i32
  br label %11

11:                                               ; preds = %7, %4
  %.0 = phi i32 [ %10, %7 ], [ 0, %4 ]
  tail call void @EVP_MD_CTX_free(ptr noundef %5) #27
  ret i32 %.0
}